ccopy_reg
_reconstructor
p1
(cargparse
Namespace
p2
c__builtin__
object
p3
NtRp4
(dp5
S'grad_clip'
p6
F5
sS'rnn_size'
p7
I256
sS'data_scale'
p8
F15
sS'learning_rate'
p9
F0.0050000000000000001
sS'num_layers'
p10
I2
sS'seq_length'
p11
I300
sS'decay_rate'
p12
F0.98999999999999999
sS'num_mixture'
p13
I24
sS'batch_size'
p14
I100
sS'num_epochs'
p15
I500
sS'dataset_name'
p16
S'kanji'
p17
sS'model'
p18
S'lstm'
p19
sS'save_every'
p20
I250
sS'keep_prob'
p21
F0.80000000000000004
sS'stroke_importance_factor'
p22
F200
sb.